; Function Attrs: mustprogress uwtable
define dso_local void @_ZNSt3__14__fs10filesystem10__absoluteERKNS1_4pathEPNS_10error_codeE(ptr dead_on_unwind noalias writable sret(%"class.std::__1::__fs::filesystem::path") align 8 %0, ptr noundef nonnull align 8 dereferenceable(24) %1, ptr noundef %2) local_unnamed_addr #0 personality ptr @__gxx_personality_v0 {
  %4 = alloca %"class.std::__1::__fs::filesystem::path", align 8
  call void @llvm.lifetime.start.p0(i64 24, ptr nonnull %4) #28
  call void @llvm.memset.p0.i64(ptr noundef nonnull align 8 dereferenceable(24) %4, i8 0, i64 24, i1 false)
  invoke fastcc void @_ZNSt3__14__fs10filesystemL13__do_absoluteERKNS1_4pathEPS2_PNS_10error_codeE(ptr dead_on_unwind noalias writable align 8 %0, ptr noundef nonnull align 8 dereferenceable(24) %1, ptr noundef %4, ptr noundef %2)
          to label %5 unwind label %13

5:                                                ; preds = %3
  %6 = load i8, ptr %4, align 8
  %7 = and i8 %6, 1
  %.not.i.i = icmp eq i8 %7, 0
  br i1 %.not.i.i, label %_ZNSt3__14__fs10filesystem4pathD2B8ne210000Ev.exit, label %8

8:                                                ; preds = %5
  %9 = getelementptr inbounds nuw i8, ptr %4, i64 16
  %10 = load ptr, ptr %9, align 8, !tbaa !5
  %11 = load i64, ptr %4, align 8
  %12 = and i64 %11, -2
  tail call void @_ZdlPvm(ptr noundef %10, i64 noundef %12) #29
  br label %_ZNSt3__14__fs10filesystem4pathD2B8ne210000Ev.exit

_ZNSt3__14__fs10filesystem4pathD2B8ne210000Ev.exit: ; preds = %5, %8
  call void @llvm.lifetime.end.p0(i64 24, ptr nonnull %4) #28
  ret void

13:                                               ; preds = %3
  %14 = landingpad { ptr, i32 }
          cleanup
  %15 = load i8, ptr %4, align 8
  %16 = and i8 %15, 1
  %.not.i.i3 = icmp eq i8 %16, 0
  br i1 %.not.i.i3, label %_ZNSt3__14__fs10filesystem4pathD2B8ne210000Ev.exit4, label %17

17:                                               ; preds = %13
  %18 = getelementptr inbounds nuw i8, ptr %4, i64 16
  %19 = load ptr, ptr %18, align 8, !tbaa !5
  %20 = load i64, ptr %4, align 8
  %21 = and i64 %20, -2
  tail call void @_ZdlPvm(ptr noundef %19, i64 noundef %21) #29
  br label %_ZNSt3__14__fs10filesystem4pathD2B8ne210000Ev.exit4

_ZNSt3__14__fs10filesystem4pathD2B8ne210000Ev.exit4: ; preds = %13, %17
  call void @llvm.lifetime.end.p0(i64 24, ptr nonnull %4) #28
  resume { ptr, i32 } %14
}